target datalayout = "e-m:e-p270:32:32-p271:32:32-p272:64:64-i64:64-i128:128-f80:128-n8:16:32:64-S128"
target triple = "x86_64-pc-linux-gnu"

%struct.PaAlsaStream = type { %struct.PaUtilStreamRepresentation, %struct.PaUtilCpuLoadMeasurer, %struct.PaUtilBufferProcessor, %struct.PaUnixThread, i64, i64, i32, i32, i32, i32, ptr, i32, i32, i32, i32, %struct.PaUnixMutex, i32, double, double, %struct.PaAlsaStreamComponent, %struct.PaAlsaStreamComponent }
%struct.PaUtilStreamRepresentation = type { i64, ptr, ptr, ptr, ptr, ptr, %struct.PaStreamInfo }
%struct.PaStreamInfo = type { i32, double, double, double }
%struct.PaUtilCpuLoadMeasurer = type { double, double, double }
%struct.PaUtilBufferProcessor = type { i64, i64, i32, i32, i32, i32, i64, i32, i32, i32, i32, ptr, ptr, i32, i32, i32, i32, ptr, ptr, i64, i64, ptr, ptr, i64, ptr, ptr, i64, ptr, i64, i32, [2 x i64], [2 x ptr], i32, [2 x i64], [2 x ptr], %struct.PaUtilTriangularDitherGenerator, double, ptr, ptr }
%struct.PaUtilTriangularDitherGenerator = type { i32, i32, i32 }
%struct.PaUnixThread = type { i64, i32, i32, i32, %struct.PaUnixMutex, %union.pthread_cond_t, i32, i32 }
%union.pthread_cond_t = type { %struct.__pthread_cond_s }
%struct.__pthread_cond_s = type { %union.__atomic_wide_counter, %union.__atomic_wide_counter, [2 x i32], [2 x i32], i32, i32, [2 x i32] }
%union.__atomic_wide_counter = type { i64 }
%struct.PaUnixMutex = type { %union.pthread_mutex_t }
%union.pthread_mutex_t = type { %struct.__pthread_mutex_s }
%struct.__pthread_mutex_s = type { i32, i32, i32, i32, i32, i16, i16, %struct.__pthread_internal_list }
%struct.__pthread_internal_list = type { ptr, ptr }
%struct.PaAlsaStreamComponent = type { i64, i32, i32, i32, i32, i32, ptr, i32, i32, i32, i32, ptr, i64, i64, i32, i32, i32, ptr, i64, i32, ptr }

@alsa_snd_pcm_delay = internal global ptr null, align 8
@alsa_snd_strerror = internal global ptr null, align 8
@paUnixMainThread = external global i64, align 8
@.str.188 = private unnamed_addr constant [172 x i8] c"Expression 'err' failed in 'generated/home/dtcxzyw/WorkSpace/Projects/compilers/llvm-opt-benchmark/bench/portaudio/portaudio/src/hostapi/alsa/pa_linux_alsa.c', line: 3397\0A\00", align 1

; Function Attrs: nounwind uwtable
define internal i32 @CalculatePollTimeout(ptr noundef %0, i64 noundef %1) #0 {
  %3 = alloca ptr, align 8
  %4 = alloca i64, align 8
  store ptr %0, ptr %3, align 8, !tbaa !38
  store i64 %1, ptr %4, align 8, !tbaa !37
  %5 = load i64, ptr %4, align 8, !tbaa !37
  %6 = mul i64 1000, %5
  %7 = uitofp i64 %6 to double
  %8 = load ptr, ptr %3, align 8, !tbaa !38
  %9 = getelementptr inbounds nuw %struct.PaAlsaStream, ptr %8, i32 0, i32 0
  %10 = getelementptr inbounds nuw %struct.PaUtilStreamRepresentation, ptr %9, i32 0, i32 6
  %11 = getelementptr inbounds nuw %struct.PaStreamInfo, ptr %10, i32 0, i32 3
  %12 = load double, ptr %11, align 8, !tbaa !171
  %13 = fdiv double %7, %12
  %14 = call double @llvm.ceil.f64(double %13)
  %15 = fptosi double %14 to i32
  ret i32 %15
}

; Function Attrs: inlinehint nounwind willreturn memory(none) uwtable
define available_externally i32 @pthread_equal(i64 noundef %0, i64 noundef %1) #8 {
  %3 = alloca i64, align 8
  %4 = alloca i64, align 8
  store i64 %0, ptr %3, align 8, !tbaa !37
  store i64 %1, ptr %4, align 8, !tbaa !37
  %5 = load i64, ptr %3, align 8, !tbaa !37
  %6 = load i64, ptr %4, align 8, !tbaa !37
  %7 = icmp eq i64 %5, %6
  %8 = zext i1 %7 to i32
  ret i32 %8
}

; Function Attrs: nounwind uwtable
define internal i32 @ContinuePoll(ptr noundef %0, i32 noundef %1, ptr noundef %2, ptr noundef %3) #0 {
  %5 = alloca i32, align 4
  %6 = alloca ptr, align 8
  %7 = alloca i32, align 4
  %8 = alloca ptr, align 8
  %9 = alloca ptr, align 8
  %10 = alloca i32, align 4
  %11 = alloca i64, align 8
  %12 = alloca i64, align 8
  %13 = alloca i32, align 4
  %14 = alloca ptr, align 8
  %15 = alloca ptr, align 8
  %16 = alloca i32, align 4
  %17 = alloca i32, align 4
  store ptr %0, ptr %6, align 8, !tbaa !38
  store i32 %1, ptr %7, align 4, !tbaa !8
  store ptr %2, ptr %8, align 8, !tbaa !122
  store ptr %3, ptr %9, align 8, !tbaa !122
  call void @llvm.lifetime.start.p0(i64 4, ptr %10) #17
  store i32 0, ptr %10, align 4, !tbaa !8
  call void @llvm.lifetime.start.p0(i64 8, ptr %11) #17
  call void @llvm.lifetime.start.p0(i64 8, ptr %12) #17
  call void @llvm.lifetime.start.p0(i64 4, ptr %13) #17
  call void @llvm.lifetime.start.p0(i64 8, ptr %14) #17
  store ptr null, ptr %14, align 8, !tbaa !32
  call void @llvm.lifetime.start.p0(i64 8, ptr %15) #17
  store ptr null, ptr %15, align 8, !tbaa !32
  %18 = load ptr, ptr %9, align 8, !tbaa !122
  store i32 1, ptr %18, align 4, !tbaa !8
  %19 = load i32, ptr %7, align 4, !tbaa !8
  %20 = icmp eq i32 0, %19
  br i1 %20, label %21, label %26

21:                                               ; preds = %4
  %22 = load ptr, ptr %6, align 8, !tbaa !38
  %23 = getelementptr inbounds nuw %struct.PaAlsaStream, ptr %22, i32 0, i32 19
  store ptr %23, ptr %14, align 8, !tbaa !32
  %24 = load ptr, ptr %6, align 8, !tbaa !38
  %25 = getelementptr inbounds nuw %struct.PaAlsaStream, ptr %24, i32 0, i32 20
  store ptr %25, ptr %15, align 8, !tbaa !32
  br label %31

26:                                               ; preds = %4
  %27 = load ptr, ptr %6, align 8, !tbaa !38
  %28 = getelementptr inbounds nuw %struct.PaAlsaStream, ptr %27, i32 0, i32 20
  store ptr %28, ptr %14, align 8, !tbaa !32
  %29 = load ptr, ptr %6, align 8, !tbaa !38
  %30 = getelementptr inbounds nuw %struct.PaAlsaStream, ptr %29, i32 0, i32 19
  store ptr %30, ptr %15, align 8, !tbaa !32
  br label %31

31:                                               ; preds = %26, %21
  %32 = load ptr, ptr @alsa_snd_pcm_delay, align 8, !tbaa !32
  %33 = load ptr, ptr %15, align 8, !tbaa !32
  %34 = getelementptr inbounds nuw %struct.PaAlsaStreamComponent, ptr %33, i32 0, i32 11
  %35 = load ptr, ptr %34, align 8, !tbaa !179
  %36 = call i32 %32(ptr noundef %35, ptr noundef %11)
  store i32 %36, ptr %13, align 4, !tbaa !8
  %37 = icmp slt i32 %36, 0
  br i1 %37, label %38, label %69

38:                                               ; preds = %31
  %39 = load i32, ptr %13, align 4, !tbaa !8
  %40 = icmp eq i32 %39, -32
  br i1 %40, label %41, label %43

41:                                               ; preds = %38
  %42 = load ptr, ptr %9, align 8, !tbaa !122
  store i32 0, ptr %42, align 4, !tbaa !8
  br label %102

43:                                               ; preds = %38
  br label %44

44:                                               ; preds = %43
  call void @llvm.lifetime.start.p0(i64 4, ptr %16) #17
  %45 = load i32, ptr %13, align 4, !tbaa !8
  store i32 %45, ptr %16, align 4, !tbaa !8
  %46 = icmp slt i32 %45, 0
  %47 = zext i1 %46 to i32
  %48 = sext i32 %47 to i64
  %49 = call i64 @llvm.expect.i64(i64 %48, i64 0)
  %50 = icmp ne i64 %49, 0
  br i1 %50, label %51, label %63

51:                                               ; preds = %44
  %52 = call i64 @pthread_self() #20
  %53 = load i64, ptr @paUnixMainThread, align 8, !tbaa !37
  %54 = call i32 @pthread_equal(i64 noundef %52, i64 noundef %53) #20
  %55 = icmp ne i32 %54, 0
  br i1 %55, label %56, label %62

56:                                               ; preds = %51
  %57 = load i32, ptr %16, align 4, !tbaa !8
  %58 = sext i32 %57 to i64
  %59 = load ptr, ptr @alsa_snd_strerror, align 8, !tbaa !32
  %60 = load i32, ptr %16, align 4, !tbaa !8
  %61 = call ptr %59(i32 noundef %60)
  call void @PaUtil_SetLastHostErrorInfo(i32 noundef 8, i64 noundef %58, ptr noundef %61)
  br label %62

62:                                               ; preds = %56, %51
  call void (ptr, ...) @PaUtil_DebugPrint(ptr noundef @.str.188)
  store i32 -9999, ptr %10, align 4, !tbaa !8
  store i32 2, ptr %17, align 4
  br label %64

63:                                               ; preds = %44
  store i32 0, ptr %17, align 4
  br label %64

64:                                               ; preds = %62, %63
  call void @llvm.lifetime.end.p0(i64 4, ptr %16) #17
  %65 = load i32, ptr %17, align 4
  switch i32 %65, label %104 [
    i32 0, label %66
    i32 2, label %102
  ]

66:                                               ; preds = %64
  br label %67

67:                                               ; preds = %66
  br label %68

68:                                               ; preds = %67
  br label %69

69:                                               ; preds = %68, %31
  %70 = load i32, ptr %7, align 4, !tbaa !8
  %71 = icmp eq i32 1, %70
  br i1 %71, label %72, label %78

72:                                               ; preds = %69
  %73 = load ptr, ptr %15, align 8, !tbaa !32
  %74 = getelementptr inbounds nuw %struct.PaAlsaStreamComponent, ptr %73, i32 0, i32 13
  %75 = load i64, ptr %74, align 8, !tbaa !198
  %76 = load i64, ptr %11, align 8, !tbaa !37
  %77 = sub i64 %75, %76
  store i64 %77, ptr %11, align 8, !tbaa !37
  br label %78

78:                                               ; preds = %72, %69
  %79 = load i64, ptr %11, align 8, !tbaa !37
  %80 = load ptr, ptr %15, align 8, !tbaa !32
  %81 = getelementptr inbounds nuw %struct.PaAlsaStreamComponent, ptr %80, i32 0, i32 12
  %82 = load i64, ptr %81, align 8, !tbaa !194
  %83 = udiv i64 %82, 2
  %84 = sub i64 %79, %83
  store i64 %84, ptr %12, align 8, !tbaa !37
  %85 = load i64, ptr %12, align 8, !tbaa !37
  %86 = icmp slt i64 %85, 0
  br i1 %86, label %87, label %89

87:                                               ; preds = %78
  %88 = load ptr, ptr %9, align 8, !tbaa !122
  store i32 0, ptr %88, align 4, !tbaa !8
  br label %101

89:                                               ; preds = %78
  %90 = load i64, ptr %12, align 8, !tbaa !37
  %91 = load ptr, ptr %15, align 8, !tbaa !32
  %92 = getelementptr inbounds nuw %struct.PaAlsaStreamComponent, ptr %91, i32 0, i32 12
  %93 = load i64, ptr %92, align 8, !tbaa !194
  %94 = icmp ult i64 %90, %93
  br i1 %94, label %95, label %100

95:                                               ; preds = %89
  %96 = load ptr, ptr %6, align 8, !tbaa !38
  %97 = load i64, ptr %12, align 8, !tbaa !37
  %98 = call i32 @CalculatePollTimeout(ptr noundef %96, i64 noundef %97)
  %99 = load ptr, ptr %8, align 8, !tbaa !122
  store i32 %98, ptr %99, align 4, !tbaa !8
  br label %100

100:                                              ; preds = %95, %89
  br label %101

101:                                              ; preds = %100, %87
  br label %102

102:                                              ; preds = %101, %64, %41
  %103 = load i32, ptr %10, align 4, !tbaa !8
  store i32 %103, ptr %5, align 4
  store i32 1, ptr %17, align 4
  br label %104

104:                                              ; preds = %102, %64
  call void @llvm.lifetime.end.p0(i64 8, ptr %15) #17
  call void @llvm.lifetime.end.p0(i64 8, ptr %14) #17
  call void @llvm.lifetime.end.p0(i64 4, ptr %13) #17
  call void @llvm.lifetime.end.p0(i64 8, ptr %12) #17
  call void @llvm.lifetime.end.p0(i64 8, ptr %11) #17
  call void @llvm.lifetime.end.p0(i64 4, ptr %10) #17
  %105 = load i32, ptr %5, align 4
  ret i32 %105
}