; Function Attrs: nounwind uwtable
define internal fastcc range(i32 -9999, 1) i32 @ContinuePoll(ptr noundef readonly captures(none) %0, i32 noundef range(i32 0, 2) %1, ptr noundef nonnull writeonly captures(none) %2, ptr noundef nonnull writeonly captures(none) initializes((0, 4)) %3) unnamed_addr #2 {
  %5 = alloca i64, align 8
  call void @llvm.lifetime.start.p0(i64 8, ptr nonnull %5) #25
  store i32 1, ptr %3, align 4, !tbaa !3
  %6 = icmp eq i32 %1, 0
  %.025.v = select i1 %6, i64 776, i64 648
  %.025 = getelementptr inbounds nuw i8, ptr %0, i64 %.025.v
  %7 = getelementptr inbounds nuw i8, ptr %.025, i64 56
  %8 = load ptr, ptr %7, align 8, !tbaa !147
  %9 = call i32 @snd_pcm_delay(ptr noundef %8, ptr noundef nonnull %5) #25, !callees !277
  %10 = icmp slt i32 %9, 0
  br i1 %10, label %11, label %21

11:                                               ; preds = %4
  %12 = icmp eq i32 %9, -32
  br i1 %12, label %13, label %14

13:                                               ; preds = %11
  store i32 0, ptr %3, align 4, !tbaa !3
  br label %43

14:                                               ; preds = %11
  %15 = tail call i64 @pthread_self() #28
  %16 = load i64, ptr @paUnixMainThread, align 8, !tbaa !108
  %.not = icmp eq i64 %15, %16
  br i1 %.not, label %17, label %20

17:                                               ; preds = %14
  %18 = sext i32 %9 to i64
  %19 = call ptr @snd_strerror(i32 noundef %9) #25, !callees !109
  call void @PaUtil_SetLastHostErrorInfo(i32 noundef 8, i64 noundef %18, ptr noundef %19) #25
  br label %20

20:                                               ; preds = %17, %14
  call void (ptr, ...) @PaUtil_DebugPrint(ptr noundef nonnull @.str.188) #25
  br label %43

21:                                               ; preds = %4
  %.pre = load i64, ptr %5, align 8, !tbaa !108
  br i1 %6, label %26, label %22

22:                                               ; preds = %21
  %23 = getelementptr inbounds nuw i8, ptr %0, i64 720
  %24 = load i64, ptr %23, align 8, !tbaa !227
  %25 = sub i64 %24, %.pre
  br label %26

26:                                               ; preds = %22, %21
  %27 = phi i64 [ %25, %22 ], [ %.pre, %21 ]
  %28 = getelementptr inbounds nuw i8, ptr %.025, i64 64
  %29 = load i64, ptr %28, align 8, !tbaa !197
  %30 = lshr i64 %29, 1
  %31 = sub i64 %27, %30
  %32 = icmp slt i64 %31, 0
  br i1 %32, label %33, label %34

33:                                               ; preds = %26
  store i32 0, ptr %3, align 4, !tbaa !3
  br label %43

34:                                               ; preds = %26
  %35 = icmp ult i64 %31, %29
  br i1 %35, label %36, label %43

36:                                               ; preds = %34
  %37 = getelementptr i8, ptr %0, i64 72
  %.val = load double, ptr %37, align 8, !tbaa !201
  %38 = mul i64 %31, 1000
  %39 = uitofp i64 %38 to double
  %40 = fdiv double %39, %.val
  %41 = call double @llvm.ceil.f64(double %40)
  %42 = fptosi double %41 to i32
  store i32 %42, ptr %2, align 4, !tbaa !3
  br label %43

43:                                               ; preds = %13, %34, %36, %33, %20
  %.1 = phi i32 [ 0, %13 ], [ -9999, %20 ], [ 0, %33 ], [ 0, %36 ], [ 0, %34 ]
  call void @llvm.lifetime.end.p0(i64 8, ptr nonnull %5) #25
  ret i32 %.1
}